target datalayout = "e-m:e-p270:32:32-p271:32:32-p272:64:64-i64:64-i128:128-f80:128-n8:16:32:64-S128"
target triple = "x86_64-pc-linux-gnu"

%struct.ieee_802_11n = type { i8, i16, i32, i8, i32 }

@ieee80211_ht_Nes = internal constant [77 x i8] c"\01\01\01\01\01\01\01\01\01\01\01\01\01\01\01\01\01\01\01\01\01\02\02\02\01\01\01\01\02\02\02\02\01\01\01\01\01\01\01\01\01\01\01\01\01\01\01\01\01\01\01\01\01\01\01\01\01\01\01\01\01\01\01\01\01\01\01\01\01\01\02\02\02\02\02\02\02", align 16

; Function Attrs: nounwind null_pointer_is_valid sspstrong uwtable
define internal i32 @calculate_11n_duration(i32 noundef %0, ptr noundef %1, i32 noundef %2) #0 {
  %4 = alloca i32, align 4
  %5 = alloca ptr, align 8
  %6 = alloca i32, align 4
  %7 = alloca i32, align 4
  %8 = alloca i32, align 4
  %9 = alloca i32, align 4
  %10 = alloca i32, align 4
  store i32 %0, ptr %4, align 4
  store ptr %1, ptr %5, align 8
  store i32 %2, ptr %6, align 4
  call void @llvm.lifetime.start.p0(i64 4, ptr %7) #10
  call void @llvm.lifetime.start.p0(i64 4, ptr %8) #10
  call void @llvm.lifetime.start.p0(i64 4, ptr %9) #10
  call void @llvm.lifetime.start.p0(i64 4, ptr %10) #10
  %11 = load i32, ptr %4, align 4
  %12 = mul i32 8, %11
  %13 = add i32 %12, 16
  %14 = load ptr, ptr %5, align 8
  %15 = getelementptr inbounds nuw %struct.ieee_802_11n, ptr %14, i32 0, i32 1
  %16 = load i16, ptr %15, align 2
  %17 = zext i16 %16 to i64
  %18 = getelementptr [77 x i8], ptr @ieee80211_ht_Nes, i64 0, i64 %17
  %19 = load i8, ptr %18, align 1
  %20 = zext i8 %19 to i32
  %21 = mul i32 %20, 6
  %22 = add i32 %13, %21
  store i32 %22, ptr %7, align 4
  %23 = load i32, ptr %6, align 4
  %24 = icmp ne i32 %23, 0
  %25 = select i1 %24, i32 2, i32 1
  store i32 %25, ptr %9, align 4
  %26 = load ptr, ptr %5, align 8
  %27 = getelementptr inbounds nuw %struct.ieee_802_11n, ptr %26, i32 0, i32 1
  %28 = load i16, ptr %27, align 2
  %29 = zext i16 %28 to i64
  %30 = getelementptr [77 x i16], ptr @ieee80211_ht_Dbps, i64 0, i64 %29
  %31 = load i16, ptr %30, align 2
  %32 = zext i16 %31 to i32
  %33 = load ptr, ptr %5, align 8
  %34 = getelementptr inbounds nuw %struct.ieee_802_11n, ptr %33, i32 0, i32 2
  %35 = load i32, ptr %34, align 4
  %36 = icmp eq i32 %35, 1
  %37 = select i1 %36, i32 2, i32 1
  %38 = mul i32 %32, %37
  store i32 %38, ptr %8, align 4
  %39 = load i32, ptr %7, align 4
  %40 = load i32, ptr %8, align 4
  %41 = load i32, ptr %9, align 4
  %42 = mul i32 %40, %41
  %43 = udiv i32 %39, %42
  store i32 %43, ptr %10, align 4
  %44 = load i32, ptr %7, align 4
  %45 = load i32, ptr %8, align 4
  %46 = load i32, ptr %9, align 4
  %47 = mul i32 %45, %46
  %48 = urem i32 %44, %47
  %49 = icmp ugt i32 %48, 0
  br i1 %49, label %50, label %53

50:                                               ; preds = %3
  %51 = load i32, ptr %10, align 4
  %52 = add i32 %51, 1
  store i32 %52, ptr %10, align 4
  br label %53

53:                                               ; preds = %50, %3
  %54 = load i32, ptr %9, align 4
  %55 = load i32, ptr %10, align 4
  %56 = mul i32 %55, %54
  store i32 %56, ptr %10, align 4
  %57 = load i32, ptr %10, align 4
  %58 = load ptr, ptr %5, align 8
  %59 = getelementptr inbounds nuw %struct.ieee_802_11n, ptr %58, i32 0, i32 3
  %60 = load i8, ptr %59, align 4
  %61 = and i8 %60, 1
  %62 = zext i8 %61 to i32
  %63 = icmp ne i32 %62, 0
  %64 = select i1 %63, i32 36, i32 40
  %65 = mul i32 %57, %64
  %66 = add i32 %65, 5
  %67 = udiv i32 %66, 10
  call void @llvm.lifetime.end.p0(i64 4, ptr %10) #10
  call void @llvm.lifetime.end.p0(i64 4, ptr %9) #10
  call void @llvm.lifetime.end.p0(i64 4, ptr %8) #10
  call void @llvm.lifetime.end.p0(i64 4, ptr %7) #10
  ret i32 %67
}