; Function Attrs: mustprogress nofree norecurse nosync nounwind null_pointer_is_valid sspstrong willreturn memory(argmem: read) uwtable
define internal fastcc range(i32 0, 429496730) i32 @calculate_11n_duration(i32 noundef %0, ptr noundef readonly captures(none) %1, i32 noundef range(i32 0, 4) %2) unnamed_addr #7 {
  %4 = shl i32 %0, 3
  %5 = add i32 %4, 16
  %6 = getelementptr inbounds nuw i8, ptr %1, i64 2
  %7 = load i16, ptr %6, align 2
  %8 = zext i16 %7 to i64
  %9 = getelementptr [77 x i8], ptr @ieee80211_ht_Nes, i64 0, i64 %8
  %10 = load i8, ptr %9, align 1
  %11 = zext i8 %10 to i32
  %12 = mul nuw nsw i32 %11, 6
  %13 = add i32 %5, %12
  %.not = icmp ne i32 %2, 0
  %14 = getelementptr [77 x i16], ptr @ieee80211_ht_Dbps, i64 0, i64 %8
  %15 = load i16, ptr %14, align 2
  %16 = zext i16 %15 to i32
  %17 = getelementptr inbounds nuw i8, ptr %1, i64 4
  %18 = load i32, ptr %17, align 4
  %19 = icmp eq i32 %18, 1
  %20 = zext i1 %19 to i32
  %21 = shl nuw nsw i32 %16, %20
  %22 = zext i1 %.not to i32
  %23 = shl nuw nsw i32 %21, %22
  %24 = udiv i32 %13, %23
  %25 = urem i32 %13, %23
  %.not15 = icmp ne i32 %25, 0
  %26 = zext i1 %.not15 to i32
  %spec.select = add i32 %24, %26
  %27 = shl i32 %spec.select, %22
  %28 = getelementptr inbounds nuw i8, ptr %1, i64 8
  %29 = load i8, ptr %28, align 4
  %30 = and i8 %29, 1
  %.not16 = icmp eq i8 %30, 0
  %31 = select i1 %.not16, i32 40, i32 36
  %32 = mul i32 %27, %31
  %33 = add i32 %32, 5
  %34 = udiv i32 %33, 10
  ret i32 %34
}